target datalayout = "e-m:e-p270:32:32-p271:32:32-p272:64:64-i64:64-i128:128-f80:128-n8:16:32:64-S128"
target triple = "x86_64-pc-linux-gnu"

%struct._cmstransform_struct = type { i32, i32, ptr, ptr, ptr, ptr, ptr, %struct._cmsCACHE, ptr, ptr, ptr, ptr, i32, i32, %struct.cmsCIEXYZ, %struct.cmsCIEXYZ, ptr, i32, double, i32, ptr, ptr, ptr, ptr, ptr, i32, i32 }
%struct._cmsCACHE = type { [16 x i16], [16 x i16] }
%struct.cmsCIEXYZ = type { double, double, double }

; Function Attrs: nounwind uwtable
define internal i32 @PixelSize(i32 noundef %0) #0 {
  %2 = alloca i32, align 4
  %3 = alloca i32, align 4
  %4 = alloca i32, align 4
  store i32 %0, ptr %3, align 4
  %5 = load i32, ptr %3, align 4
  %6 = and i32 %5, 7
  store i32 %6, ptr %4, align 4
  %7 = load i32, ptr %4, align 4
  %8 = icmp eq i32 %7, 0
  br i1 %8, label %9, label %10

9:                                                ; preds = %1
  store i32 8, ptr %2, align 4
  br label %12

10:                                               ; preds = %1
  %11 = load i32, ptr %4, align 4
  store i32 %11, ptr %2, align 4
  br label %12

12:                                               ; preds = %10, %9
  %13 = load i32, ptr %2, align 4
  ret i32 %13
}

; Function Attrs: nounwind uwtable
define internal ptr @PackXYZFloatFrom16(ptr noundef %0, ptr noundef %1, ptr noundef %2, i32 noundef %3) #0 {
  %5 = alloca ptr, align 8
  %6 = alloca ptr, align 8
  %7 = alloca ptr, align 8
  %8 = alloca ptr, align 8
  %9 = alloca i32, align 4
  %10 = alloca %struct.cmsCIEXYZ, align 8
  %11 = alloca ptr, align 8
  %12 = alloca %struct.cmsCIEXYZ, align 8
  %13 = alloca ptr, align 8
  store ptr %0, ptr %6, align 8
  store ptr %1, ptr %7, align 8
  store ptr %2, ptr %8, align 8
  store i32 %3, ptr %9, align 4
  %14 = load ptr, ptr %6, align 8
  %15 = getelementptr inbounds %struct._cmstransform_struct, ptr %14, i32 0, i32 1
  %16 = load i32, ptr %15, align 4
  %17 = lshr i32 %16, 12
  %18 = and i32 %17, 1
  %19 = icmp ne i32 %18, 0
  br i1 %19, label %20, label %51

20:                                               ; preds = %4
  %21 = load ptr, ptr %8, align 8
  store ptr %21, ptr %11, align 8
  %22 = load ptr, ptr %7, align 8
  call void @cmsXYZEncoded2Float(ptr noundef %10, ptr noundef %22)
  %23 = load ptr, ptr %6, align 8
  %24 = getelementptr inbounds %struct._cmstransform_struct, ptr %23, i32 0, i32 1
  %25 = load i32, ptr %24, align 4
  %26 = call i32 @PixelSize(i32 noundef %25)
  %27 = load i32, ptr %9, align 4
  %28 = udiv i32 %27, %26
  store i32 %28, ptr %9, align 4
  %29 = getelementptr inbounds %struct.cmsCIEXYZ, ptr %10, i32 0, i32 0
  %30 = load double, ptr %29, align 8
  %31 = fptrunc double %30 to float
  %32 = load ptr, ptr %11, align 8
  %33 = getelementptr inbounds float, ptr %32, i64 0
  store float %31, ptr %33, align 4
  %34 = getelementptr inbounds %struct.cmsCIEXYZ, ptr %10, i32 0, i32 1
  %35 = load double, ptr %34, align 8
  %36 = fptrunc double %35 to float
  %37 = load ptr, ptr %11, align 8
  %38 = load i32, ptr %9, align 4
  %39 = zext i32 %38 to i64
  %40 = getelementptr inbounds float, ptr %37, i64 %39
  store float %36, ptr %40, align 4
  %41 = getelementptr inbounds %struct.cmsCIEXYZ, ptr %10, i32 0, i32 2
  %42 = load double, ptr %41, align 8
  %43 = fptrunc double %42 to float
  %44 = load ptr, ptr %11, align 8
  %45 = load i32, ptr %9, align 4
  %46 = mul i32 %45, 2
  %47 = zext i32 %46 to i64
  %48 = getelementptr inbounds float, ptr %44, i64 %47
  store float %43, ptr %48, align 4
  %49 = load ptr, ptr %8, align 8
  %50 = getelementptr inbounds i8, ptr %49, i64 4
  store ptr %50, ptr %5, align 8
  br label %79

51:                                               ; preds = %4
  %52 = load ptr, ptr %8, align 8
  store ptr %52, ptr %13, align 8
  %53 = load ptr, ptr %7, align 8
  call void @cmsXYZEncoded2Float(ptr noundef %12, ptr noundef %53)
  %54 = getelementptr inbounds %struct.cmsCIEXYZ, ptr %12, i32 0, i32 0
  %55 = load double, ptr %54, align 8
  %56 = fptrunc double %55 to float
  %57 = load ptr, ptr %13, align 8
  %58 = getelementptr inbounds float, ptr %57, i64 0
  store float %56, ptr %58, align 4
  %59 = getelementptr inbounds %struct.cmsCIEXYZ, ptr %12, i32 0, i32 1
  %60 = load double, ptr %59, align 8
  %61 = fptrunc double %60 to float
  %62 = load ptr, ptr %13, align 8
  %63 = getelementptr inbounds float, ptr %62, i64 1
  store float %61, ptr %63, align 4
  %64 = getelementptr inbounds %struct.cmsCIEXYZ, ptr %12, i32 0, i32 2
  %65 = load double, ptr %64, align 8
  %66 = fptrunc double %65 to float
  %67 = load ptr, ptr %13, align 8
  %68 = getelementptr inbounds float, ptr %67, i64 2
  store float %66, ptr %68, align 4
  %69 = load ptr, ptr %8, align 8
  %70 = load ptr, ptr %6, align 8
  %71 = getelementptr inbounds %struct._cmstransform_struct, ptr %70, i32 0, i32 1
  %72 = load i32, ptr %71, align 4
  %73 = lshr i32 %72, 7
  %74 = and i32 %73, 7
  %75 = zext i32 %74 to i64
  %76 = mul i64 %75, 4
  %77 = add i64 12, %76
  %78 = getelementptr inbounds i8, ptr %69, i64 %77
  store ptr %78, ptr %5, align 8
  br label %79

79:                                               ; preds = %51, %20
  %80 = load ptr, ptr %5, align 8
  ret ptr %80
}