; Function Attrs: nounwind uwtable
define internal nonnull ptr @PackXYZFloatFrom16(ptr nocapture noundef readonly %0, ptr noundef %1, ptr noundef writeonly %2, i32 noundef %3) #0 {
  %5 = alloca %struct.cmsCIEXYZ, align 8
  %6 = alloca %struct.cmsCIEXYZ, align 16
  %7 = getelementptr inbounds i8, ptr %0, i64 4
  %8 = load i32, ptr %7, align 4
  %9 = and i32 %8, 4096
  %.not = icmp eq i32 %9, 0
  br i1 %.not, label %29, label %10

10:                                               ; preds = %4
  call void @cmsXYZEncoded2Float(ptr noundef nonnull %5, ptr noundef %1) #11
  %11 = load i32, ptr %7, align 4
  %12 = and i32 %11, 7
  %13 = icmp eq i32 %12, 0
  %..i = select i1 %13, i32 8, i32 %12
  %14 = udiv i32 %3, %..i
  %15 = load double, ptr %5, align 8
  %16 = fptrunc double %15 to float
  store float %16, ptr %2, align 4
  %17 = getelementptr inbounds i8, ptr %5, i64 8
  %18 = load double, ptr %17, align 8
  %19 = fptrunc double %18 to float
  %20 = zext i32 %14 to i64
  %21 = getelementptr inbounds float, ptr %2, i64 %20
  store float %19, ptr %21, align 4
  %22 = getelementptr inbounds i8, ptr %5, i64 16
  %23 = load double, ptr %22, align 8
  %24 = fptrunc double %23 to float
  %25 = shl i32 %14, 1
  %26 = zext i32 %25 to i64
  %27 = getelementptr inbounds float, ptr %2, i64 %26
  store float %24, ptr %27, align 4
  %28 = getelementptr inbounds i8, ptr %2, i64 4
  br label %42

29:                                               ; preds = %4
  call void @cmsXYZEncoded2Float(ptr noundef nonnull %6, ptr noundef %1) #11
  %30 = load <2 x double>, ptr %6, align 16
  %31 = fptrunc <2 x double> %30 to <2 x float>
  store <2 x float> %31, ptr %2, align 4
  %32 = getelementptr inbounds i8, ptr %6, i64 16
  %33 = load double, ptr %32, align 16
  %34 = fptrunc double %33 to float
  %35 = getelementptr inbounds i8, ptr %2, i64 8
  store float %34, ptr %35, align 4
  %36 = load i32, ptr %7, align 4
  %37 = lshr i32 %36, 5
  %38 = and i32 %37, 28
  %39 = zext nneg i32 %38 to i64
  %40 = getelementptr inbounds i8, ptr %2, i64 %39
  %41 = getelementptr inbounds i8, ptr %40, i64 12
  br label %42

42:                                               ; preds = %29, %10
  %.0 = phi ptr [ %28, %10 ], [ %41, %29 ]
  ret ptr %.0
}